target datalayout = "e-m:e-p270:32:32-p271:32:32-p272:64:64-i64:64-i128:128-f80:128-n8:16:32:64-S128"
target triple = "x86_64-pc-linux-gnu"

%struct._packet_info = type { ptr, ptr, i32, i32, %struct.nstime_t, %struct.nstime_t, %struct.nstime_t, i8, ptr, ptr, ptr, ptr, %struct._address, %struct._address, %struct._address, %struct._address, %struct._address, %struct._address, i32, ptr, i8, [3 x i8], %struct.anon, i32, i32, i32, i32, ptr, i8, ptr, ptr, i16, i16, i32, i32, i16, i32, i32, ptr, ptr, ptr, i8, i8, i16, i16, i16, i32, i16, i16, ptr, ptr, ptr, ptr, ptr, i32, i32 }
%struct.nstime_t = type { i64, i32 }
%struct._address = type { i32, i32, ptr, ptr }
%struct.anon = type { i8, [3 x i8] }

@ett_mp4 = internal global i32 0, align 4
@proto_mp4 = internal global i32 0, align 4
@.str.125 = private unnamed_addr constant [4 x i8] c"MP4\00", align 1

; Function Attrs: null_pointer_is_valid sspstrong uwtable
define internal i32 @dissect_mp4(ptr noundef %0, ptr noundef %1, ptr noundef %2, ptr noundef %3) #0 {
  %5 = alloca i32, align 4
  %6 = alloca ptr, align 8
  %7 = alloca ptr, align 8
  %8 = alloca ptr, align 8
  %9 = alloca ptr, align 8
  %10 = alloca i32, align 4
  %11 = alloca i32, align 4
  %12 = alloca ptr, align 8
  %13 = alloca ptr, align 8
  %14 = alloca i32, align 4
  %15 = alloca i32, align 4
  store ptr %0, ptr %6, align 8
  store ptr %1, ptr %7, align 8
  store ptr %2, ptr %8, align 8
  store ptr %3, ptr %9, align 8
  call void @llvm.lifetime.start.p0(i64 4, ptr %10) #7
  store i32 0, ptr %10, align 4
  call void @llvm.lifetime.start.p0(i64 4, ptr %11) #7
  call void @llvm.lifetime.start.p0(i64 8, ptr %12) #7
  call void @llvm.lifetime.start.p0(i64 8, ptr %13) #7
  call void @llvm.lifetime.start.p0(i64 4, ptr %14) #7
  %16 = load ptr, ptr %6, align 8
  %17 = call i32 @tvb_reported_length(ptr noundef %16)
  %18 = icmp ult i32 %17, 8
  br i1 %18, label %19, label %20

19:                                               ; preds = %4
  store i32 0, ptr %5, align 4
  store i32 1, ptr %15, align 4
  br label %63

20:                                               ; preds = %4
  %21 = load ptr, ptr %6, align 8
  %22 = call i32 @tvb_get_ntohl(ptr noundef %21, i32 noundef 4)
  store i32 %22, ptr %11, align 4
  %23 = load i32, ptr %11, align 4
  %24 = call ptr @try_val_to_str(i32 noundef %23, ptr noundef @box_types)
  %25 = icmp eq ptr %24, null
  br i1 %25, label %26, label %27

26:                                               ; preds = %20
  store i32 0, ptr %5, align 4
  store i32 1, ptr %15, align 4
  br label %63

27:                                               ; preds = %20
  %28 = load ptr, ptr %7, align 8
  %29 = getelementptr inbounds nuw %struct._packet_info, ptr %28, i32 0, i32 1
  %30 = load ptr, ptr %29, align 8
  call void @col_set_str(ptr noundef %30, i32 noundef 35, ptr noundef @.str.125)
  %31 = load ptr, ptr %7, align 8
  %32 = getelementptr inbounds nuw %struct._packet_info, ptr %31, i32 0, i32 1
  %33 = load ptr, ptr %32, align 8
  call void @col_clear(ptr noundef %33, i32 noundef 25)
  %34 = load ptr, ptr %8, align 8
  %35 = load i32, ptr @proto_mp4, align 4
  %36 = load ptr, ptr %6, align 8
  %37 = load ptr, ptr %6, align 8
  %38 = call i32 @tvb_reported_length(ptr noundef %37)
  %39 = call ptr (ptr, i32, ptr, i32, i32, ptr, ...) @proto_tree_add_protocol_format(ptr noundef %34, i32 noundef %35, ptr noundef %36, i32 noundef 0, i32 noundef %38, ptr noundef @.str.125)
  store ptr %39, ptr %12, align 8
  %40 = load ptr, ptr %12, align 8
  %41 = load i32, ptr @ett_mp4, align 4
  %42 = call ptr @proto_item_add_subtree(ptr noundef %40, i32 noundef %41)
  store ptr %42, ptr %13, align 8
  br label %43

43:                                               ; preds = %57, %27
  %44 = load ptr, ptr %6, align 8
  %45 = load i32, ptr %10, align 4
  %46 = call i32 @tvb_reported_length_remaining(ptr noundef %44, i32 noundef %45)
  %47 = icmp sgt i32 %46, 0
  br i1 %47, label %48, label %61

48:                                               ; preds = %43
  %49 = load ptr, ptr %6, align 8
  %50 = load i32, ptr %10, align 4
  %51 = load ptr, ptr %7, align 8
  %52 = load ptr, ptr %13, align 8
  %53 = call i32 @dissect_mp4_box(i32 noundef 0, i32 noundef 0, ptr noundef %49, i32 noundef %50, ptr noundef %51, ptr noundef %52)
  store i32 %53, ptr %14, align 4
  %54 = load i32, ptr %14, align 4
  %55 = icmp sle i32 %54, 0
  br i1 %55, label %56, label %57

56:                                               ; preds = %48
  br label %61

57:                                               ; preds = %48
  %58 = load i32, ptr %14, align 4
  %59 = load i32, ptr %10, align 4
  %60 = add i32 %59, %58
  store i32 %60, ptr %10, align 4
  br label %43, !llvm.loop !6

61:                                               ; preds = %56, %43
  %62 = load i32, ptr %10, align 4
  store i32 %62, ptr %5, align 4
  store i32 1, ptr %15, align 4
  br label %63

63:                                               ; preds = %61, %26, %19
  call void @llvm.lifetime.end.p0(i64 4, ptr %14) #7
  call void @llvm.lifetime.end.p0(i64 8, ptr %13) #7
  call void @llvm.lifetime.end.p0(i64 8, ptr %12) #7
  call void @llvm.lifetime.end.p0(i64 4, ptr %11) #7
  call void @llvm.lifetime.end.p0(i64 4, ptr %10) #7
  %64 = load i32, ptr %5, align 4
  ret i32 %64
}