; Function Attrs: null_pointer_is_valid sspstrong uwtable
define internal noundef i32 @dissect_mp4(ptr noundef %0, ptr noundef %1, ptr noundef %2, ptr readnone captures(none) %3) #0 {
  %5 = tail call i32 @tvb_reported_length(ptr noundef %0)
  %6 = icmp ult i32 %5, 8
  br i1 %6, label %.loopexit, label %7

7:                                                ; preds = %4
  %8 = tail call i32 @tvb_get_ntohl(ptr noundef %0, i32 noundef 4)
  %9 = tail call ptr @try_val_to_str(i32 noundef %8, ptr noundef nonnull @box_types)
  %10 = icmp eq ptr %9, null
  br i1 %10, label %.loopexit, label %11

11:                                               ; preds = %7
  %12 = getelementptr inbounds nuw i8, ptr %1, i64 8
  %13 = load ptr, ptr %12, align 8
  tail call void @col_set_str(ptr noundef %13, i32 noundef 35, ptr noundef nonnull @.str.125)
  %14 = load ptr, ptr %12, align 8
  tail call void @col_clear(ptr noundef %14, i32 noundef 25)
  %15 = load i32, ptr @proto_mp4, align 4
  %16 = tail call i32 @tvb_reported_length(ptr noundef %0)
  %17 = tail call ptr (ptr, i32, ptr, i32, i32, ptr, ...) @proto_tree_add_protocol_format(ptr noundef %2, i32 noundef %15, ptr noundef %0, i32 noundef 0, i32 noundef %16, ptr noundef nonnull @.str.125)
  %18 = load i32, ptr @ett_mp4, align 4
  %19 = tail call ptr @proto_item_add_subtree(ptr noundef %17, i32 noundef %18)
  %20 = tail call i32 @tvb_reported_length_remaining(ptr noundef %0, i32 noundef 0)
  %21 = icmp sgt i32 %20, 0
  br i1 %21, label %.lr.ph, label %.loopexit

22:                                               ; preds = %.lr.ph
  %23 = add i32 %26, %.01921
  %24 = tail call i32 @tvb_reported_length_remaining(ptr noundef %0, i32 noundef %23)
  %25 = icmp sgt i32 %24, 0
  br i1 %25, label %.lr.ph, label %.loopexit, !llvm.loop !6

.lr.ph:                                           ; preds = %11, %22
  %.01921 = phi i32 [ %23, %22 ], [ 0, %11 ]
  %26 = tail call fastcc i32 @dissect_mp4_box(i32 noundef 0, ptr noundef %0, i32 noundef %.01921, ptr noundef %1, ptr noundef %19)
  %27 = icmp slt i32 %26, 1
  br i1 %27, label %.loopexit, label %22

.loopexit:                                        ; preds = %.lr.ph, %22, %11, %7, %4
  %.0 = phi i32 [ 0, %4 ], [ 0, %7 ], [ 0, %11 ], [ %.01921, %.lr.ph ], [ %23, %22 ]
  ret i32 %.0
}